(dp1
S'mylocation'
p2
ccopy_reg
_reconstructor
p3
(ctwisted.plugin
CachedDropin
p4
c__builtin__
object
p5
NtRp6
(dp7
S'moduleName'
p8
S'nevow.plugins.mylocation'
p9
sS'description'
p10
S'\nCreated on Jun 27, 2013\n\n@author: briank\n'
p11
sS'plugins'
p12
(lp13
g3
(ctwisted.plugin
CachedPlugin
p14
g5
NtRp15
(dp16
S'provided'
p17
(lp18
ctwisted.plugin
IPlugin
p19
acnevow.inevow
IJavascriptPackage
p20
asS'dropin'
p21
g6
sS'name'
p22
S'myPackage'
p23
sg10
S'\n    A Javascript package.\n\n    @type mapping: C{dict}\n    @ivar mapping: Mapping between JS module names and C{str} representing\n    filesystem paths containing their implementations.\n    '
p24
sbasbs.